target datalayout = "e-m:e-p270:32:32-p271:32:32-p272:64:64-i64:64-i128:128-f80:128-n8:16:32:64-S128"
target triple = "x86_64-pc-linux-gnu"

%struct.RelationSyncEntry = type { i32, i8, i8, i32, ptr, %struct.PublicationActions, [3 x ptr], ptr, ptr, ptr, i32, ptr, ptr, ptr }
%struct.PublicationActions = type { i8, i8, i8, i8 }
%struct.HASH_SEQ_STATUS = type { ptr, i32, ptr, i8, i32 }

@publications_valid = internal global i8 0, align 1
@RelationSyncCache = internal global ptr null, align 8

; Function Attrs: nounwind uwtable
define internal void @rel_sync_cache_publication_cb(i64 noundef %0, i32 noundef %1, i32 noundef %2) #0 {
  %4 = alloca i64, align 8
  %5 = alloca i32, align 4
  %6 = alloca i32, align 4
  %7 = alloca %struct.HASH_SEQ_STATUS, align 8
  %8 = alloca ptr, align 8
  %9 = alloca i32, align 4
  store i64 %0, ptr %4, align 8
  store i32 %1, ptr %5, align 4
  store i32 %2, ptr %6, align 4
  call void @llvm.lifetime.start.p0(i64 32, ptr %7) #10
  call void @llvm.lifetime.start.p0(i64 8, ptr %8) #10
  %10 = load ptr, ptr @RelationSyncCache, align 8
  %11 = icmp eq ptr %10, null
  br i1 %11, label %12, label %13

12:                                               ; preds = %3
  store i32 1, ptr %9, align 4
  br label %22

13:                                               ; preds = %3
  %14 = load ptr, ptr @RelationSyncCache, align 8
  call void @hash_seq_init(ptr noundef %7, ptr noundef %14)
  br label %15

15:                                               ; preds = %18, %13
  %16 = call ptr @hash_seq_search(ptr noundef %7)
  store ptr %16, ptr %8, align 8
  %17 = icmp ne ptr %16, null
  br i1 %17, label %18, label %21

18:                                               ; preds = %15
  %19 = load ptr, ptr %8, align 8
  %20 = getelementptr inbounds nuw %struct.RelationSyncEntry, ptr %19, i32 0, i32 1
  store i8 0, ptr %20, align 4
  br label %15, !llvm.loop !8

21:                                               ; preds = %15
  store i32 0, ptr %9, align 4
  br label %22

22:                                               ; preds = %21, %12
  call void @llvm.lifetime.end.p0(i64 8, ptr %8) #10
  call void @llvm.lifetime.end.p0(i64 32, ptr %7) #10
  %23 = load i32, ptr %9, align 4
  switch i32 %23, label %25 [
    i32 0, label %24
    i32 1, label %24
  ]

24:                                               ; preds = %22, %22
  ret void

25:                                               ; preds = %22
  unreachable
}

; Function Attrs: nounwind uwtable
define internal void @publication_invalidation_cb(i64 noundef %0, i32 noundef %1, i32 noundef %2) #0 {
  %4 = alloca i64, align 8
  %5 = alloca i32, align 4
  %6 = alloca i32, align 4
  store i64 %0, ptr %4, align 8
  store i32 %1, ptr %5, align 4
  store i32 %2, ptr %6, align 4
  store i8 0, ptr @publications_valid, align 1
  %7 = load i64, ptr %4, align 8
  %8 = load i32, ptr %5, align 4
  %9 = load i32, ptr %6, align 4
  call void @rel_sync_cache_publication_cb(i64 noundef %7, i32 noundef %8, i32 noundef %9)
  ret void
}