; Function Attrs: nounwind uwtable
define internal void @publication_invalidation_cb(i64 %0, i32 %1, i32 %2) #2 {
  %4 = alloca %struct.HASH_SEQ_STATUS, align 8
  store i1 false, ptr @publications_valid, align 1
  call void @llvm.lifetime.start.p0(i64 32, ptr nonnull %4) #13
  %5 = load ptr, ptr @RelationSyncCache, align 8
  %6 = icmp eq ptr %5, null
  br i1 %6, label %rel_sync_cache_publication_cb.exit, label %7

7:                                                ; preds = %3
  call void @hash_seq_init(ptr noundef nonnull %4, ptr noundef nonnull %5) #13
  %8 = call ptr @hash_seq_search(ptr noundef nonnull %4) #13
  %.not2.i = icmp eq ptr %8, null
  br i1 %.not2.i, label %rel_sync_cache_publication_cb.exit, label %.lr.ph.i

.lr.ph.i:                                         ; preds = %7, %.lr.ph.i
  %9 = phi ptr [ %11, %.lr.ph.i ], [ %8, %7 ]
  %10 = getelementptr inbounds nuw i8, ptr %9, i64 4
  store i8 0, ptr %10, align 4
  %11 = call ptr @hash_seq_search(ptr noundef nonnull %4) #13
  %.not.i = icmp eq ptr %11, null
  br i1 %.not.i, label %rel_sync_cache_publication_cb.exit, label %.lr.ph.i, !llvm.loop !9

rel_sync_cache_publication_cb.exit:               ; preds = %.lr.ph.i, %3, %7
  call void @llvm.lifetime.end.p0(i64 32, ptr nonnull %4) #13
  ret void
}